(dp0
S'student_info_t'
p1
ccollections
OrderedDict
p2
((lp3
(lp4
S'table_name'
p5
ag1
aa(lp6
S'struct_name'
p7
aS'tStudentInfo'
p8
aa(lp9
S'file_name'
p10
aS'struct_student_info_t.txt'
p11
aa(lp12
S'name'
p13
a(S'szName'
p14
S'char'
p15
S'[11]'
p16
S'varchar2'
p17
I10
tp18
aa(lp19
S'age'
p20
a(S'nAge'
p21
S'int32_t'
p22
S''
p23
S'number'
p24
I9
tp25
aa(lp26
S'gender'
p27
a(S'szGender'
p28
g15
S'[11]'
p29
S'varchar2'
p30
I10
tp31
aa(lp32
S'grade'
p33
a(S'nGrade'
p34
g22
g23
S'number'
p35
I9
tp36
aa(lp37
S'class'
p38
a(S'nClass'
p39
g22
g23
S'number'
p40
I9
tp41
aa(lp42
S'tel_num'
p43
a(S'szTelNum'
p44
g15
S'[17]'
p45
S'varchar2'
p46
I16
tp47
aa(lp48
S'created_date'
p49
a(S'szCreatedDate'
p50
g15
S'[15]'
p51
S'date'
p52
I14
tp53
aatp54
Rp55
s.